; Function Attrs: mustprogress nofree norecurse nounwind ssp willreturn uwtable
define void @_ZNK6open3d4core7HashSet20GetDeviceHashBackendEv(ptr dead_on_unwind noalias writable writeonly sret(%"class.std::shared_ptr.9") align 8 captures(none) initializes((0, 16)) %0, ptr noundef nonnull readonly align 8 captures(none) dereferenceable(24) %1) local_unnamed_addr #15 align 2 personality ptr @__gxx_personality_v0 {
  %3 = getelementptr inbounds nuw i8, ptr %1, i64 8
  %4 = load ptr, ptr %3, align 8, !tbaa !19
  tail call void @llvm.experimental.noalias.scope.decl(metadata !71)
  %5 = getelementptr inbounds nuw i8, ptr %4, i64 8
  %6 = load ptr, ptr %5, align 8, !tbaa !74, !noalias !71
  store ptr %6, ptr %0, align 8, !tbaa !74, !alias.scope !71
  %7 = getelementptr inbounds nuw i8, ptr %0, i64 8
  %8 = getelementptr inbounds nuw i8, ptr %4, i64 16
  %9 = load ptr, ptr %8, align 8, !tbaa !7, !noalias !71
  store ptr %9, ptr %7, align 8, !tbaa !7, !alias.scope !71
  %.not.i.i.i.i = icmp eq ptr %9, null
  br i1 %.not.i.i.i.i, label %_ZNK6open3d4core7HashMap20GetDeviceHashBackendEv.exit, label %10

10:                                               ; preds = %2
  %11 = getelementptr inbounds nuw i8, ptr %9, i64 8
  %12 = load i8, ptr @__libc_single_threaded, align 1, !tbaa !16, !noalias !71
  %.not.i.i.i.i.i = icmp eq i8 %12, 0
  br i1 %.not.i.i.i.i.i, label %16, label %13

13:                                               ; preds = %10
  %14 = load i32, ptr %11, align 4, !tbaa !17, !noalias !71
  %15 = add nsw i32 %14, 1
  store i32 %15, ptr %11, align 4, !tbaa !17, !noalias !71
  br label %_ZNK6open3d4core7HashMap20GetDeviceHashBackendEv.exit

16:                                               ; preds = %10
  %17 = atomicrmw volatile add ptr %11, i32 1 acq_rel, align 4, !noalias !71
  br label %_ZNK6open3d4core7HashMap20GetDeviceHashBackendEv.exit

_ZNK6open3d4core7HashMap20GetDeviceHashBackendEv.exit: ; preds = %2, %13, %16
  ret void
}